; Function Attrs: nounwind uwtable
define i32 @Abc_NodeIsInv(ptr noundef readonly captures(none) %0) local_unnamed_addr #0 {
  %2 = getelementptr i8, ptr %0, i64 28
  %.val17 = load i32, ptr %2, align 4, !tbaa !59
  %.not = icmp eq i32 %.val17, 1
  br i1 %.not, label %3, label %29

3:                                                ; preds = %1
  %4 = load ptr, ptr %0, align 8, !tbaa !24
  %5 = getelementptr i8, ptr %4, i64 4
  %.val15 = load i32, ptr %5, align 4, !tbaa !51
  switch i32 %.val15, label %29 [
    i32 1, label %6
    i32 2, label %10
    i32 3, label %16
    i32 4, label %22
  ]

6:                                                ; preds = %3
  %7 = getelementptr inbounds nuw i8, ptr %0, i64 56
  %8 = load ptr, ptr %7, align 8, !tbaa !43
  %9 = tail call i32 @Abc_SopIsInv(ptr noundef %8) #10
  br label %29

10:                                               ; preds = %3
  %11 = getelementptr inbounds nuw i8, ptr %0, i64 56
  %12 = load ptr, ptr %11, align 8, !tbaa !43
  %13 = ptrtoint ptr %12 to i64
  %14 = trunc i64 %13 to i32
  %15 = and i32 %14, 1
  br label %29

16:                                               ; preds = %3
  %17 = getelementptr inbounds nuw i8, ptr %0, i64 56
  %18 = load ptr, ptr %17, align 8, !tbaa !43
  %19 = ptrtoint ptr %18 to i64
  %20 = trunc i64 %19 to i32
  %21 = and i32 %20, 1
  br label %29

22:                                               ; preds = %3
  %23 = getelementptr inbounds nuw i8, ptr %0, i64 56
  %24 = load ptr, ptr %23, align 8, !tbaa !43
  %25 = tail call ptr (...) @Abc_FrameReadLibGen() #10
  %26 = tail call ptr @Mio_LibraryReadInv(ptr noundef %25) #10
  %27 = icmp eq ptr %24, %26
  %28 = zext i1 %27 to i32
  br label %29

29:                                               ; preds = %3, %1, %22, %16, %10, %6
  %.0 = phi i32 [ %9, %6 ], [ %15, %10 ], [ %21, %16 ], [ %28, %22 ], [ 0, %1 ], [ 0, %3 ]
  ret i32 %.0
}